target datalayout = "e-m:e-p270:32:32-p271:32:32-p272:64:64-i64:64-i128:128-f80:128-n8:16:32:64-S128"
target triple = "x86_64-pc-linux-gnu"

%struct.AVFilterContext = type { ptr, ptr, ptr, ptr, ptr, i32, ptr, ptr, i32, ptr, ptr, i32, i32, ptr, ptr, ptr, ptr, i32, ptr, i32, i32 }
%struct.BufferSinkContext = type { ptr, i32, i32, ptr, i32, ptr, i32, ptr, i32, ptr, i32, ptr, i32, ptr, i32, ptr, i32, ptr, i32, ptr, i32, ptr, i32, ptr, i32, ptr, i32, ptr }

; Function Attrs: nounwind uwtable
define internal i32 @vsink_query_formats(ptr noundef %0, ptr noundef %1, ptr noundef %2) #0 {
  %4 = alloca i32, align 4
  %5 = alloca ptr, align 8
  %6 = alloca ptr, align 8
  %7 = alloca ptr, align 8
  %8 = alloca ptr, align 8
  %9 = alloca i32, align 4
  %10 = alloca i32, align 4
  %11 = alloca i32, align 4
  %12 = alloca ptr, align 8
  %13 = alloca ptr, align 8
  %14 = alloca ptr, align 8
  store ptr %0, ptr %5, align 8, !tbaa !4
  store ptr %1, ptr %6, align 8, !tbaa !88
  store ptr %2, ptr %7, align 8, !tbaa !88
  call void @llvm.lifetime.start.p0(i64 8, ptr %8) #9
  %15 = load ptr, ptr %5, align 8, !tbaa !4
  %16 = getelementptr inbounds nuw %struct.AVFilterContext, ptr %15, i32 0, i32 9
  %17 = load ptr, ptr %16, align 8, !tbaa !37
  store ptr %17, ptr %8, align 8, !tbaa !38
  call void @llvm.lifetime.start.p0(i64 4, ptr %9) #9
  %18 = load ptr, ptr %8, align 8, !tbaa !38
  %19 = getelementptr inbounds nuw %struct.BufferSinkContext, ptr %18, i32 0, i32 10
  %20 = load i32, ptr %19, align 8, !tbaa !83
  %21 = icmp ne i32 %20, 0
  br i1 %21, label %32, label %22

22:                                               ; preds = %3
  %23 = load ptr, ptr %8, align 8, !tbaa !38
  %24 = getelementptr inbounds nuw %struct.BufferSinkContext, ptr %23, i32 0, i32 12
  %25 = load i32, ptr %24, align 8, !tbaa !87
  %26 = icmp ne i32 %25, 0
  br i1 %26, label %32, label %27

27:                                               ; preds = %22
  %28 = load ptr, ptr %8, align 8, !tbaa !38
  %29 = getelementptr inbounds nuw %struct.BufferSinkContext, ptr %28, i32 0, i32 14
  %30 = load i32, ptr %29, align 8, !tbaa !85
  %31 = icmp ne i32 %30, 0
  br i1 %31, label %32, label %87

32:                                               ; preds = %27, %22, %3
  %33 = load ptr, ptr %8, align 8, !tbaa !38
  %34 = getelementptr inbounds nuw %struct.BufferSinkContext, ptr %33, i32 0, i32 10
  %35 = load i32, ptr %34, align 8, !tbaa !83
  %36 = icmp ne i32 %35, 0
  br i1 %36, label %37, label %50

37:                                               ; preds = %32
  %38 = load ptr, ptr %5, align 8, !tbaa !4
  %39 = load ptr, ptr %6, align 8, !tbaa !88
  %40 = load ptr, ptr %7, align 8, !tbaa !88
  %41 = load ptr, ptr %8, align 8, !tbaa !38
  %42 = getelementptr inbounds nuw %struct.BufferSinkContext, ptr %41, i32 0, i32 9
  %43 = load ptr, ptr %42, align 8, !tbaa !82
  %44 = call i32 @ff_set_common_formats_from_list2(ptr noundef %38, ptr noundef %39, ptr noundef %40, ptr noundef %43)
  store i32 %44, ptr %9, align 4, !tbaa !11
  %45 = load i32, ptr %9, align 4, !tbaa !11
  %46 = icmp slt i32 %45, 0
  br i1 %46, label %47, label %49

47:                                               ; preds = %37
  %48 = load i32, ptr %9, align 4, !tbaa !11
  store i32 %48, ptr %4, align 4
  store i32 1, ptr %10, align 4
  br label %227

49:                                               ; preds = %37
  br label %50

50:                                               ; preds = %49, %32
  %51 = load ptr, ptr %8, align 8, !tbaa !38
  %52 = getelementptr inbounds nuw %struct.BufferSinkContext, ptr %51, i32 0, i32 12
  %53 = load i32, ptr %52, align 8, !tbaa !87
  %54 = icmp ne i32 %53, 0
  br i1 %54, label %55, label %68

55:                                               ; preds = %50
  %56 = load ptr, ptr %5, align 8, !tbaa !4
  %57 = load ptr, ptr %6, align 8, !tbaa !88
  %58 = load ptr, ptr %7, align 8, !tbaa !88
  %59 = load ptr, ptr %8, align 8, !tbaa !38
  %60 = getelementptr inbounds nuw %struct.BufferSinkContext, ptr %59, i32 0, i32 11
  %61 = load ptr, ptr %60, align 8, !tbaa !86
  %62 = call i32 @ff_set_common_color_spaces_from_list2(ptr noundef %56, ptr noundef %57, ptr noundef %58, ptr noundef %61)
  store i32 %62, ptr %9, align 4, !tbaa !11
  %63 = load i32, ptr %9, align 4, !tbaa !11
  %64 = icmp slt i32 %63, 0
  br i1 %64, label %65, label %67

65:                                               ; preds = %55
  %66 = load i32, ptr %9, align 4, !tbaa !11
  store i32 %66, ptr %4, align 4
  store i32 1, ptr %10, align 4
  br label %227

67:                                               ; preds = %55
  br label %68

68:                                               ; preds = %67, %50
  %69 = load ptr, ptr %8, align 8, !tbaa !38
  %70 = getelementptr inbounds nuw %struct.BufferSinkContext, ptr %69, i32 0, i32 14
  %71 = load i32, ptr %70, align 8, !tbaa !85
  %72 = icmp ne i32 %71, 0
  br i1 %72, label %73, label %86

73:                                               ; preds = %68
  %74 = load ptr, ptr %5, align 8, !tbaa !4
  %75 = load ptr, ptr %6, align 8, !tbaa !88
  %76 = load ptr, ptr %7, align 8, !tbaa !88
  %77 = load ptr, ptr %8, align 8, !tbaa !38
  %78 = getelementptr inbounds nuw %struct.BufferSinkContext, ptr %77, i32 0, i32 13
  %79 = load ptr, ptr %78, align 8, !tbaa !84
  %80 = call i32 @ff_set_common_color_ranges_from_list2(ptr noundef %74, ptr noundef %75, ptr noundef %76, ptr noundef %79)
  store i32 %80, ptr %9, align 4, !tbaa !11
  %81 = load i32, ptr %9, align 4, !tbaa !11
  %82 = icmp slt i32 %81, 0
  br i1 %82, label %83, label %85

83:                                               ; preds = %73
  %84 = load i32, ptr %9, align 4, !tbaa !11
  store i32 %84, ptr %4, align 4
  store i32 1, ptr %10, align 4
  br label %227

85:                                               ; preds = %73
  br label %86

86:                                               ; preds = %85, %68
  br label %226

87:                                               ; preds = %27
  call void @llvm.lifetime.start.p0(i64 4, ptr %11) #9
  %88 = load ptr, ptr %8, align 8, !tbaa !38
  %89 = getelementptr inbounds nuw %struct.BufferSinkContext, ptr %88, i32 0, i32 4
  %90 = load i32, ptr %89, align 8, !tbaa !90
  %91 = icmp ne i32 %90, 0
  br i1 %91, label %92, label %132

92:                                               ; preds = %87
  call void @llvm.lifetime.start.p0(i64 8, ptr %12) #9
  store ptr null, ptr %12, align 8, !tbaa !91
  store i32 0, ptr %11, align 4, !tbaa !11
  br label %93

93:                                               ; preds = %116, %92
  %94 = load i32, ptr %11, align 4, !tbaa !11
  %95 = zext i32 %94 to i64
  %96 = load ptr, ptr %8, align 8, !tbaa !38
  %97 = getelementptr inbounds nuw %struct.BufferSinkContext, ptr %96, i32 0, i32 4
  %98 = load i32, ptr %97, align 8, !tbaa !90
  %99 = sext i32 %98 to i64
  %100 = udiv i64 %99, 4
  %101 = icmp ult i64 %95, %100
  br i1 %101, label %102, label %119

102:                                              ; preds = %93
  %103 = load ptr, ptr %8, align 8, !tbaa !38
  %104 = getelementptr inbounds nuw %struct.BufferSinkContext, ptr %103, i32 0, i32 3
  %105 = load ptr, ptr %104, align 8, !tbaa !92
  %106 = load i32, ptr %11, align 4, !tbaa !11
  %107 = zext i32 %106 to i64
  %108 = getelementptr inbounds nuw i32, ptr %105, i64 %107
  %109 = load i32, ptr %108, align 4, !tbaa !11
  %110 = sext i32 %109 to i64
  %111 = call i32 @ff_add_format(ptr noundef %12, i64 noundef %110)
  store i32 %111, ptr %9, align 4, !tbaa !11
  %112 = icmp slt i32 %111, 0
  br i1 %112, label %113, label %115

113:                                              ; preds = %102
  %114 = load i32, ptr %9, align 4, !tbaa !11
  store i32 %114, ptr %4, align 4
  store i32 1, ptr %10, align 4
  br label %129

115:                                              ; preds = %102
  br label %116

116:                                              ; preds = %115
  %117 = load i32, ptr %11, align 4, !tbaa !11
  %118 = add i32 %117, 1
  store i32 %118, ptr %11, align 4, !tbaa !11
  br label %93, !llvm.loop !93

119:                                              ; preds = %93
  %120 = load ptr, ptr %5, align 8, !tbaa !4
  %121 = load ptr, ptr %6, align 8, !tbaa !88
  %122 = load ptr, ptr %7, align 8, !tbaa !88
  %123 = load ptr, ptr %12, align 8, !tbaa !91
  %124 = call i32 @ff_set_common_formats2(ptr noundef %120, ptr noundef %121, ptr noundef %122, ptr noundef %123)
  store i32 %124, ptr %9, align 4, !tbaa !11
  %125 = icmp slt i32 %124, 0
  br i1 %125, label %126, label %128

126:                                              ; preds = %119
  %127 = load i32, ptr %9, align 4, !tbaa !11
  store i32 %127, ptr %4, align 4
  store i32 1, ptr %10, align 4
  br label %129

128:                                              ; preds = %119
  store i32 0, ptr %10, align 4
  br label %129

129:                                              ; preds = %128, %126, %113
  call void @llvm.lifetime.end.p0(i64 8, ptr %12) #9
  %130 = load i32, ptr %10, align 4
  switch i32 %130, label %223 [
    i32 0, label %131
  ]

131:                                              ; preds = %129
  br label %132

132:                                              ; preds = %131, %87
  %133 = load ptr, ptr %8, align 8, !tbaa !38
  %134 = getelementptr inbounds nuw %struct.BufferSinkContext, ptr %133, i32 0, i32 6
  %135 = load i32, ptr %134, align 8, !tbaa !95
  %136 = icmp ne i32 %135, 0
  br i1 %136, label %137, label %177

137:                                              ; preds = %132
  call void @llvm.lifetime.start.p0(i64 8, ptr %13) #9
  store ptr null, ptr %13, align 8, !tbaa !91
  store i32 0, ptr %11, align 4, !tbaa !11
  br label %138

138:                                              ; preds = %161, %137
  %139 = load i32, ptr %11, align 4, !tbaa !11
  %140 = zext i32 %139 to i64
  %141 = load ptr, ptr %8, align 8, !tbaa !38
  %142 = getelementptr inbounds nuw %struct.BufferSinkContext, ptr %141, i32 0, i32 6
  %143 = load i32, ptr %142, align 8, !tbaa !95
  %144 = sext i32 %143 to i64
  %145 = udiv i64 %144, 4
  %146 = icmp ult i64 %140, %145
  br i1 %146, label %147, label %164

147:                                              ; preds = %138
  %148 = load ptr, ptr %8, align 8, !tbaa !38
  %149 = getelementptr inbounds nuw %struct.BufferSinkContext, ptr %148, i32 0, i32 5
  %150 = load ptr, ptr %149, align 8, !tbaa !96
  %151 = load i32, ptr %11, align 4, !tbaa !11
  %152 = zext i32 %151 to i64
  %153 = getelementptr inbounds nuw i32, ptr %150, i64 %152
  %154 = load i32, ptr %153, align 4, !tbaa !11
  %155 = zext i32 %154 to i64
  %156 = call i32 @ff_add_format(ptr noundef %13, i64 noundef %155)
  store i32 %156, ptr %9, align 4, !tbaa !11
  %157 = icmp slt i32 %156, 0
  br i1 %157, label %158, label %160

158:                                              ; preds = %147
  %159 = load i32, ptr %9, align 4, !tbaa !11
  store i32 %159, ptr %4, align 4
  store i32 1, ptr %10, align 4
  br label %174

160:                                              ; preds = %147
  br label %161

161:                                              ; preds = %160
  %162 = load i32, ptr %11, align 4, !tbaa !11
  %163 = add i32 %162, 1
  store i32 %163, ptr %11, align 4, !tbaa !11
  br label %138, !llvm.loop !97

164:                                              ; preds = %138
  %165 = load ptr, ptr %5, align 8, !tbaa !4
  %166 = load ptr, ptr %6, align 8, !tbaa !88
  %167 = load ptr, ptr %7, align 8, !tbaa !88
  %168 = load ptr, ptr %13, align 8, !tbaa !91
  %169 = call i32 @ff_set_common_color_spaces2(ptr noundef %165, ptr noundef %166, ptr noundef %167, ptr noundef %168)
  store i32 %169, ptr %9, align 4, !tbaa !11
  %170 = icmp slt i32 %169, 0
  br i1 %170, label %171, label %173

171:                                              ; preds = %164
  %172 = load i32, ptr %9, align 4, !tbaa !11
  store i32 %172, ptr %4, align 4
  store i32 1, ptr %10, align 4
  br label %174

173:                                              ; preds = %164
  store i32 0, ptr %10, align 4
  br label %174

174:                                              ; preds = %173, %171, %158
  call void @llvm.lifetime.end.p0(i64 8, ptr %13) #9
  %175 = load i32, ptr %10, align 4
  switch i32 %175, label %223 [
    i32 0, label %176
  ]

176:                                              ; preds = %174
  br label %177

177:                                              ; preds = %176, %132
  %178 = load ptr, ptr %8, align 8, !tbaa !38
  %179 = getelementptr inbounds nuw %struct.BufferSinkContext, ptr %178, i32 0, i32 8
  %180 = load i32, ptr %179, align 8, !tbaa !98
  %181 = icmp ne i32 %180, 0
  br i1 %181, label %182, label %222

182:                                              ; preds = %177
  call void @llvm.lifetime.start.p0(i64 8, ptr %14) #9
  store ptr null, ptr %14, align 8, !tbaa !91
  store i32 0, ptr %11, align 4, !tbaa !11
  br label %183

183:                                              ; preds = %206, %182
  %184 = load i32, ptr %11, align 4, !tbaa !11
  %185 = zext i32 %184 to i64
  %186 = load ptr, ptr %8, align 8, !tbaa !38
  %187 = getelementptr inbounds nuw %struct.BufferSinkContext, ptr %186, i32 0, i32 8
  %188 = load i32, ptr %187, align 8, !tbaa !98
  %189 = sext i32 %188 to i64
  %190 = udiv i64 %189, 4
  %191 = icmp ult i64 %185, %190
  br i1 %191, label %192, label %209

192:                                              ; preds = %183
  %193 = load ptr, ptr %8, align 8, !tbaa !38
  %194 = getelementptr inbounds nuw %struct.BufferSinkContext, ptr %193, i32 0, i32 7
  %195 = load ptr, ptr %194, align 8, !tbaa !99
  %196 = load i32, ptr %11, align 4, !tbaa !11
  %197 = zext i32 %196 to i64
  %198 = getelementptr inbounds nuw i32, ptr %195, i64 %197
  %199 = load i32, ptr %198, align 4, !tbaa !11
  %200 = zext i32 %199 to i64
  %201 = call i32 @ff_add_format(ptr noundef %14, i64 noundef %200)
  store i32 %201, ptr %9, align 4, !tbaa !11
  %202 = icmp slt i32 %201, 0
  br i1 %202, label %203, label %205

203:                                              ; preds = %192
  %204 = load i32, ptr %9, align 4, !tbaa !11
  store i32 %204, ptr %4, align 4
  store i32 1, ptr %10, align 4
  br label %219

205:                                              ; preds = %192
  br label %206

206:                                              ; preds = %205
  %207 = load i32, ptr %11, align 4, !tbaa !11
  %208 = add i32 %207, 1
  store i32 %208, ptr %11, align 4, !tbaa !11
  br label %183, !llvm.loop !100

209:                                              ; preds = %183
  %210 = load ptr, ptr %5, align 8, !tbaa !4
  %211 = load ptr, ptr %6, align 8, !tbaa !88
  %212 = load ptr, ptr %7, align 8, !tbaa !88
  %213 = load ptr, ptr %14, align 8, !tbaa !91
  %214 = call i32 @ff_set_common_color_ranges2(ptr noundef %210, ptr noundef %211, ptr noundef %212, ptr noundef %213)
  store i32 %214, ptr %9, align 4, !tbaa !11
  %215 = icmp slt i32 %214, 0
  br i1 %215, label %216, label %218

216:                                              ; preds = %209
  %217 = load i32, ptr %9, align 4, !tbaa !11
  store i32 %217, ptr %4, align 4
  store i32 1, ptr %10, align 4
  br label %219

218:                                              ; preds = %209
  store i32 0, ptr %10, align 4
  br label %219

219:                                              ; preds = %218, %216, %203
  call void @llvm.lifetime.end.p0(i64 8, ptr %14) #9
  %220 = load i32, ptr %10, align 4
  switch i32 %220, label %223 [
    i32 0, label %221
  ]

221:                                              ; preds = %219
  br label %222

222:                                              ; preds = %221, %177
  store i32 0, ptr %10, align 4
  br label %223

223:                                              ; preds = %222, %219, %174, %129
  call void @llvm.lifetime.end.p0(i64 4, ptr %11) #9
  %224 = load i32, ptr %10, align 4
  switch i32 %224, label %227 [
    i32 0, label %225
  ]

225:                                              ; preds = %223
  br label %226

226:                                              ; preds = %225, %86
  store i32 0, ptr %4, align 4
  store i32 1, ptr %10, align 4
  br label %227

227:                                              ; preds = %226, %223, %83, %65, %47
  call void @llvm.lifetime.end.p0(i64 4, ptr %9) #9
  call void @llvm.lifetime.end.p0(i64 8, ptr %8) #9
  %228 = load i32, ptr %4, align 4
  ret i32 %228
}