; Function Attrs: nounwind uwtable
define internal range(i32 -2147483648, 1) i32 @vsink_query_formats(ptr noundef %0, ptr noundef %1, ptr noundef %2) #0 {
  %4 = alloca ptr, align 8
  %5 = alloca ptr, align 8
  %6 = alloca ptr, align 8
  %7 = getelementptr inbounds nuw i8, ptr %0, i64 72
  %8 = load ptr, ptr %7, align 8, !tbaa !33
  %9 = getelementptr inbounds nuw i8, ptr %8, i64 72
  %10 = load i32, ptr %9, align 8, !tbaa !73
  %.not = icmp eq i32 %10, 0
  br i1 %.not, label %11, label %17

11:                                               ; preds = %3
  %12 = getelementptr inbounds nuw i8, ptr %8, i64 88
  %13 = load i32, ptr %12, align 8, !tbaa !77
  %.not84 = icmp eq i32 %13, 0
  br i1 %.not84, label %14, label %.thread.thread134

14:                                               ; preds = %11
  %15 = getelementptr inbounds nuw i8, ptr %8, i64 104
  %16 = load i32, ptr %15, align 8, !tbaa !75
  %.not85 = icmp eq i32 %16, 0
  br i1 %.not85, label %34, label %.thread.thread

17:                                               ; preds = %3
  %18 = getelementptr inbounds nuw i8, ptr %8, i64 64
  %19 = load ptr, ptr %18, align 8, !tbaa !72
  %20 = tail call i32 @ff_set_common_formats_from_list2(ptr noundef nonnull %0, ptr noundef %1, ptr noundef %2, ptr noundef %19) #10
  %21 = icmp slt i32 %20, 0
  br i1 %21, label %.thread102, label %.thread

.thread:                                          ; preds = %17
  %.phi.trans.insert = getelementptr inbounds nuw i8, ptr %8, i64 88
  %.pre = load i32, ptr %.phi.trans.insert, align 8, !tbaa !77
  %22 = icmp eq i32 %.pre, 0
  br i1 %22, label %.thread.thread, label %.thread.thread134

.thread.thread134:                                ; preds = %11, %.thread
  %23 = getelementptr inbounds nuw i8, ptr %8, i64 80
  %24 = load ptr, ptr %23, align 8, !tbaa !76
  %25 = tail call i32 @ff_set_common_color_spaces_from_list2(ptr noundef nonnull %0, ptr noundef %1, ptr noundef %2, ptr noundef %24) #10
  %26 = icmp slt i32 %25, 0
  br i1 %26, label %.thread102, label %.thread.thread

.thread.thread:                                   ; preds = %14, %.thread.thread134, %.thread
  %27 = getelementptr inbounds nuw i8, ptr %8, i64 104
  %28 = load i32, ptr %27, align 8, !tbaa !75
  %.not91 = icmp eq i32 %28, 0
  br i1 %.not91, label %.thread105, label %29

29:                                               ; preds = %.thread.thread
  %30 = getelementptr inbounds nuw i8, ptr %8, i64 96
  %31 = load ptr, ptr %30, align 8, !tbaa !74
  %32 = tail call i32 @ff_set_common_color_ranges_from_list2(ptr noundef nonnull %0, ptr noundef %1, ptr noundef %2, ptr noundef %31) #10
  %33 = icmp slt i32 %32, 0
  br i1 %33, label %.thread102, label %.thread105

34:                                               ; preds = %14
  %35 = getelementptr inbounds nuw i8, ptr %8, i64 24
  %36 = load i32, ptr %35, align 8, !tbaa !78
  %.not86 = icmp eq i32 %36, 0
  br i1 %.not86, label %57, label %37

37:                                               ; preds = %34
  call void @llvm.lifetime.start.p0(i64 8, ptr nonnull %4) #10
  store ptr null, ptr %4, align 8, !tbaa !79
  %.not122 = icmp ult i32 %36, 4
  br i1 %.not122, label %._crit_edge, label %.lr.ph

.lr.ph:                                           ; preds = %37
  %38 = getelementptr inbounds nuw i8, ptr %8, i64 16
  br label %46

39:                                               ; preds = %46
  %40 = add i32 %.0113, 1
  %41 = zext i32 %40 to i64
  %42 = load i32, ptr %35, align 8, !tbaa !78
  %43 = sext i32 %42 to i64
  %44 = lshr i64 %43, 2
  %45 = icmp samesign ugt i64 %44, %41
  br i1 %45, label %46, label %._crit_edge.loopexit, !llvm.loop !80

46:                                               ; preds = %.lr.ph, %39
  %47 = phi i64 [ 0, %.lr.ph ], [ %41, %39 ]
  %.0113 = phi i32 [ 0, %.lr.ph ], [ %40, %39 ]
  %48 = load ptr, ptr %38, align 8, !tbaa !82
  %49 = getelementptr inbounds nuw i32, ptr %48, i64 %47
  %50 = load i32, ptr %49, align 4, !tbaa !47
  %51 = sext i32 %50 to i64
  %52 = call i32 @ff_add_format(ptr noundef nonnull %4, i64 noundef %51) #10
  %53 = icmp slt i32 %52, 0
  br i1 %53, label %.thread95, label %39

.thread95:                                        ; preds = %46
  call void @llvm.lifetime.end.p0(i64 8, ptr nonnull %4) #10
  br label %.thread102

._crit_edge.loopexit:                             ; preds = %39
  %.pre130 = load ptr, ptr %4, align 8, !tbaa !79
  br label %._crit_edge

._crit_edge:                                      ; preds = %._crit_edge.loopexit, %37
  %54 = phi ptr [ %.pre130, %._crit_edge.loopexit ], [ null, %37 ]
  %55 = call i32 @ff_set_common_formats2(ptr noundef %0, ptr noundef %1, ptr noundef %2, ptr noundef %54) #10
  %56 = icmp sgt i32 %55, -1
  call void @llvm.lifetime.end.p0(i64 8, ptr nonnull %4) #10
  br i1 %56, label %57, label %.thread102

57:                                               ; preds = %._crit_edge, %34
  %58 = getelementptr inbounds nuw i8, ptr %8, i64 40
  %59 = load i32, ptr %58, align 8, !tbaa !83
  %.not87 = icmp eq i32 %59, 0
  br i1 %.not87, label %80, label %60

60:                                               ; preds = %57
  call void @llvm.lifetime.start.p0(i64 8, ptr nonnull %5) #10
  store ptr null, ptr %5, align 8, !tbaa !79
  %.not123 = icmp ult i32 %59, 4
  br i1 %.not123, label %._crit_edge117, label %.lr.ph116

.lr.ph116:                                        ; preds = %60
  %61 = getelementptr inbounds nuw i8, ptr %8, i64 32
  br label %69

62:                                               ; preds = %69
  %63 = add i32 %.1114, 1
  %64 = zext i32 %63 to i64
  %65 = load i32, ptr %58, align 8, !tbaa !83
  %66 = sext i32 %65 to i64
  %67 = lshr i64 %66, 2
  %68 = icmp samesign ugt i64 %67, %64
  br i1 %68, label %69, label %._crit_edge117.loopexit, !llvm.loop !84

69:                                               ; preds = %.lr.ph116, %62
  %70 = phi i64 [ 0, %.lr.ph116 ], [ %64, %62 ]
  %.1114 = phi i32 [ 0, %.lr.ph116 ], [ %63, %62 ]
  %71 = load ptr, ptr %61, align 8, !tbaa !85
  %72 = getelementptr inbounds nuw i32, ptr %71, i64 %70
  %73 = load i32, ptr %72, align 4, !tbaa !47
  %74 = zext i32 %73 to i64
  %75 = call i32 @ff_add_format(ptr noundef nonnull %5, i64 noundef %74) #10
  %76 = icmp slt i32 %75, 0
  br i1 %76, label %.thread98, label %62

.thread98:                                        ; preds = %69
  call void @llvm.lifetime.end.p0(i64 8, ptr nonnull %5) #10
  br label %.thread102

._crit_edge117.loopexit:                          ; preds = %62
  %.pre131 = load ptr, ptr %5, align 8, !tbaa !79
  br label %._crit_edge117

._crit_edge117:                                   ; preds = %._crit_edge117.loopexit, %60
  %77 = phi ptr [ %.pre131, %._crit_edge117.loopexit ], [ null, %60 ]
  %78 = call i32 @ff_set_common_color_spaces2(ptr noundef %0, ptr noundef %1, ptr noundef %2, ptr noundef %77) #10
  %79 = icmp sgt i32 %78, -1
  call void @llvm.lifetime.end.p0(i64 8, ptr nonnull %5) #10
  br i1 %79, label %80, label %.thread102

80:                                               ; preds = %._crit_edge117, %57
  %81 = getelementptr inbounds nuw i8, ptr %8, i64 56
  %82 = load i32, ptr %81, align 8, !tbaa !86
  %.not88 = icmp eq i32 %82, 0
  br i1 %.not88, label %.thread105, label %83

83:                                               ; preds = %80
  call void @llvm.lifetime.start.p0(i64 8, ptr nonnull %6) #10
  store ptr null, ptr %6, align 8, !tbaa !79
  %.not124 = icmp ult i32 %82, 4
  br i1 %.not124, label %._crit_edge121, label %.lr.ph120

.lr.ph120:                                        ; preds = %83
  %84 = getelementptr inbounds nuw i8, ptr %8, i64 48
  br label %92

85:                                               ; preds = %92
  %86 = add i32 %.2118, 1
  %87 = zext i32 %86 to i64
  %88 = load i32, ptr %81, align 8, !tbaa !86
  %89 = sext i32 %88 to i64
  %90 = lshr i64 %89, 2
  %91 = icmp samesign ugt i64 %90, %87
  br i1 %91, label %92, label %._crit_edge121.loopexit, !llvm.loop !87

92:                                               ; preds = %.lr.ph120, %85
  %93 = phi i64 [ 0, %.lr.ph120 ], [ %87, %85 ]
  %.2118 = phi i32 [ 0, %.lr.ph120 ], [ %86, %85 ]
  %94 = load ptr, ptr %84, align 8, !tbaa !88
  %95 = getelementptr inbounds nuw i32, ptr %94, i64 %93
  %96 = load i32, ptr %95, align 4, !tbaa !47
  %97 = zext i32 %96 to i64
  %98 = call i32 @ff_add_format(ptr noundef nonnull %6, i64 noundef %97) #10
  %99 = icmp slt i32 %98, 0
  br i1 %99, label %.thread108, label %85

.thread108:                                       ; preds = %92
  call void @llvm.lifetime.end.p0(i64 8, ptr nonnull %6) #10
  br label %.thread102

._crit_edge121.loopexit:                          ; preds = %85
  %.pre132 = load ptr, ptr %6, align 8, !tbaa !79
  br label %._crit_edge121

._crit_edge121:                                   ; preds = %._crit_edge121.loopexit, %83
  %100 = phi ptr [ %.pre132, %._crit_edge121.loopexit ], [ null, %83 ]
  %101 = call i32 @ff_set_common_color_ranges2(ptr noundef %0, ptr noundef %1, ptr noundef %2, ptr noundef %100) #10
  %102 = icmp sgt i32 %101, -1
  call void @llvm.lifetime.end.p0(i64 8, ptr nonnull %6) #10
  br i1 %102, label %.thread105, label %.thread102

.thread105:                                       ; preds = %80, %._crit_edge121, %.thread.thread, %29
  br label %.thread102

.thread102:                                       ; preds = %.thread98, %.thread95, %._crit_edge, %._crit_edge117, %.thread108, %29, %.thread.thread134, %17, %._crit_edge121, %.thread105
  %.068 = phi i32 [ 0, %.thread105 ], [ %101, %._crit_edge121 ], [ %20, %17 ], [ %25, %.thread.thread134 ], [ %32, %29 ], [ %98, %.thread108 ], [ %75, %.thread98 ], [ %52, %.thread95 ], [ %55, %._crit_edge ], [ %78, %._crit_edge117 ]
  ret i32 %.068
}